target datalayout = "e-m:e-p270:32:32-p271:32:32-p272:64:64-i64:64-i128:128-f80:128-n8:16:32:64-S128"
target triple = "x86_64-pc-linux-gnu"

%class.RegMask = type { %union.anon, i32, i32 }
%union.anon = type { [11 x i64] }
%class.VMRegImpl = type { i8 }
%class.LRG = type { double, double, double, ptr, i32, i32, i32, i32, i32, i32, %class.RegMask, i32, i16, i32, i16, i16 }

@all_VMRegs = external hidden global [610 x %class.VMRegImpl], align 16

; Function Attrs: mustprogress nounwind uwtable
define linkonce_odr hidden noundef i32 @_Z12checked_castIilET_T0_(i64 noundef %0) #1 comdat {
  %2 = alloca i64, align 8
  %3 = alloca i32, align 4
  store i64 %0, ptr %2, align 8
  %4 = load i64, ptr %2, align 8
  %5 = trunc i64 %4 to i32
  store i32 %5, ptr %3, align 4
  %6 = load i32, ptr %3, align 4
  ret i32 %6
}

; Function Attrs: mustprogress nounwind uwtable
define linkonce_odr hidden noundef ptr @_ZN9VMRegImpl5firstEv() #1 comdat align 2 {
  ret ptr getelementptr inbounds (%class.VMRegImpl, ptr @all_VMRegs, i64 1)
}

; Function Attrs: mustprogress nounwind uwtable
define linkonce_odr hidden noundef i32 @_ZNK9VMRegImpl5valueEv(ptr noundef nonnull align 1 dereferenceable(1) %0) #1 comdat align 2 {
  %2 = alloca ptr, align 8
  store ptr %0, ptr %2, align 8
  %3 = load ptr, ptr %2, align 8
  %4 = call noundef ptr @_ZN9VMRegImpl5firstEv()
  %5 = ptrtoint ptr %3 to i64
  %6 = ptrtoint ptr %4 to i64
  %7 = sub i64 %5, %6
  %8 = call noundef i32 @_Z12checked_castIilET_T0_(i64 noundef %7)
  ret i32 %8
}

; Function Attrs: mustprogress nounwind uwtable
define linkonce_odr hidden noundef ptr @_ZN9VMRegImpl7stack_0Ev() #1 comdat align 2 {
  %1 = call noundef ptr @_ZN9VMRegImpl5firstEv()
  %2 = getelementptr inbounds %class.VMRegImpl, ptr %1, i64 616
  ret ptr %2
}

; Function Attrs: mustprogress nounwind uwtable
define linkonce_odr hidden noundef i32 @_ZN7OptoReg6stack0Ev() #1 comdat align 2 {
  %1 = call noundef ptr @_ZN9VMRegImpl7stack_0Ev()
  %2 = call noundef i32 @_ZNK9VMRegImpl5valueEv(ptr noundef nonnull align 1 dereferenceable(1) %1)
  ret i32 %2
}

; Function Attrs: mustprogress nounwind uwtable
define linkonce_odr hidden noundef i32 @_ZN3LRG18scalable_reg_slotsEv(ptr noundef nonnull align 8 dereferenceable(168) %0) #1 comdat align 2 {
  %2 = alloca ptr, align 8
  store ptr %0, ptr %2, align 8
  %3 = load ptr, ptr %2, align 8
  %4 = getelementptr inbounds %class.LRG, ptr %3, i32 0, i32 13
  %5 = load i32, ptr %4, align 8
  ret i32 %5
}

; Function Attrs: mustprogress nounwind uwtable
define linkonce_odr hidden noundef zeroext i1 @_ZN7OptoReg8is_stackEi(i32 noundef %0) #1 comdat align 2 {
  %2 = alloca i32, align 4
  store i32 %0, ptr %2, align 4
  %3 = load i32, ptr %2, align 4
  %4 = call noundef i32 @_ZN7OptoReg6stack0Ev()
  %5 = icmp sge i32 %3, %4
  ret i1 %5
}

; Function Attrs: mustprogress nounwind uwtable
define linkonce_odr hidden noundef zeroext i1 @_ZN3LRG11is_scalableEv(ptr noundef nonnull align 8 dereferenceable(168) %0) #1 comdat align 2 {
  %2 = alloca ptr, align 8
  store ptr %0, ptr %2, align 8
  ret i1 false
}

; Function Attrs: mustprogress nounwind uwtable
define linkonce_odr hidden noundef i32 @_ZNK3LRG3regEv(ptr noundef nonnull align 8 dereferenceable(168) %0) #1 comdat align 2 {
  %2 = alloca ptr, align 8
  store ptr %0, ptr %2, align 8
  %3 = load ptr, ptr %2, align 8
  %4 = getelementptr inbounds %class.LRG, ptr %3, i32 0, i32 8
  %5 = load i32, ptr %4, align 8
  ret i32 %5
}

; Function Attrs: mustprogress nounwind uwtable
define hidden noundef i32 @_ZN7RegMask13num_registersEj(i32 noundef %0) #1 align 2 {
  %2 = alloca i32, align 4
  %3 = alloca i32, align 4
  store i32 %0, ptr %3, align 4
  %4 = load i32, ptr %3, align 4
  switch i32 %4, label %12 [
    i32 13, label %5
    i32 12, label %6
    i32 11, label %7
    i32 10, label %8
    i32 14, label %9
    i32 6, label %10
    i32 7, label %10
    i32 4, label %10
    i32 8, label %11
  ]

5:                                                ; preds = %1
  store i32 16, ptr %2, align 4
  br label %13

6:                                                ; preds = %1
  store i32 8, ptr %2, align 4
  br label %13

7:                                                ; preds = %1
  store i32 4, ptr %2, align 4
  br label %13

8:                                                ; preds = %1
  store i32 2, ptr %2, align 4
  br label %13

9:                                                ; preds = %1
  store i32 2, ptr %2, align 4
  br label %13

10:                                               ; preds = %1, %1, %1
  store i32 2, ptr %2, align 4
  br label %13

11:                                               ; preds = %1
  store i32 4, ptr %2, align 4
  br label %13

12:                                               ; preds = %1
  store i32 1, ptr %2, align 4
  br label %13

13:                                               ; preds = %12, %11, %10, %9, %8, %7, %6, %5
  %14 = load i32, ptr %2, align 4
  ret i32 %14
}

; Function Attrs: mustprogress nounwind uwtable
define hidden noundef i32 @_ZN7RegMask13num_registersEjR3LRG(i32 noundef %0, ptr noundef nonnull align 8 dereferenceable(168) %1) #1 align 2 {
  %3 = alloca i32, align 4
  %4 = alloca ptr, align 8
  %5 = alloca i32, align 4
  %6 = alloca i32, align 4
  store i32 %0, ptr %3, align 4
  store ptr %1, ptr %4, align 8
  %7 = load i32, ptr %3, align 4
  %8 = call noundef i32 @_ZN7RegMask13num_registersEj(i32 noundef %7)
  store i32 %8, ptr %5, align 4
  %9 = load ptr, ptr %4, align 8
  %10 = call noundef i32 @_ZNK3LRG3regEv(ptr noundef nonnull align 8 dereferenceable(168) %9)
  store i32 %10, ptr %6, align 4
  %11 = load ptr, ptr %4, align 8
  %12 = call noundef zeroext i1 @_ZN3LRG11is_scalableEv(ptr noundef nonnull align 8 dereferenceable(168) %11)
  br i1 %12, label %13, label %19

13:                                               ; preds = %2
  %14 = load i32, ptr %6, align 4
  %15 = call noundef zeroext i1 @_ZN7OptoReg8is_stackEi(i32 noundef %14)
  br i1 %15, label %16, label %19

16:                                               ; preds = %13
  %17 = load ptr, ptr %4, align 8
  %18 = call noundef i32 @_ZN3LRG18scalable_reg_slotsEv(ptr noundef nonnull align 8 dereferenceable(168) %17)
  store i32 %18, ptr %5, align 4
  br label %19

19:                                               ; preds = %16, %13, %2
  %20 = load i32, ptr %5, align 4
  ret i32 %20
}