; Function Attrs: mustprogress nofree norecurse nosync nounwind willreturn memory(none) uwtable
define hidden noundef i32 @_ZN7RegMask13num_registersEjR3LRG(i32 noundef %0, ptr nocapture noundef nonnull readonly align 8 dereferenceable(168) %1) local_unnamed_addr #0 align 2 {
  %switch.tableidx = add i32 %0, -4
  %3 = icmp ult i32 %switch.tableidx, 11
  br i1 %3, label %switch.lookup, label %5

switch.lookup:                                    ; preds = %2
  %4 = zext nneg i32 %switch.tableidx to i64
  %switch.gep = getelementptr inbounds [11 x i32], ptr @switch.table._ZN7RegMask13num_registersEjR3LRG, i64 0, i64 %4
  %switch.load = load i32, ptr %switch.gep, align 4
  br label %5

5:                                                ; preds = %2, %switch.lookup
  %.0.i = phi i32 [ %switch.load, %switch.lookup ], [ 1, %2 ]
  ret i32 %.0.i
}